; Function Attrs: mustprogress uwtable
define noundef range(i32 -1, 1) i32 @_ZN3zmq14ws_connecter_t4openEv(ptr noundef nonnull align 8 dereferenceable(1560) %0) local_unnamed_addr #0 align 2 {
  %2 = alloca %"class.zmq::tcp_address_t", align 4
  %3 = getelementptr inbounds nuw i8, ptr %0, i64 1472
  %4 = load i32, ptr %3, align 8, !tbaa !80
  %.not = icmp eq i32 %4, -1
  br i1 %.not, label %10, label %5, !prof !90

5:                                                ; preds = %1
  %6 = load ptr, ptr @stderr, align 8, !tbaa !74
  %7 = tail call i32 (ptr, ptr, ...) @fprintf(ptr noundef %6, ptr noundef nonnull @.str, ptr noundef nonnull @.str.3, ptr noundef nonnull @.str.2, i32 noundef 158) #16
  %8 = load ptr, ptr @stderr, align 8, !tbaa !74
  %9 = tail call i32 @fflush(ptr noundef %8)
  tail call void @_ZN3zmq9zmq_abortEPKc(ptr noundef nonnull @.str.3)
  br label %10

10:                                               ; preds = %1, %5
  call void @llvm.lifetime.start.p0(i64 60, ptr nonnull %2) #17
  call void @_ZN3zmq13tcp_address_tC1Ev(ptr noundef nonnull align 4 dereferenceable(57) %2)
  %11 = getelementptr inbounds nuw i8, ptr %0, i64 1464
  %12 = load ptr, ptr %11, align 8, !tbaa !82
  %13 = getelementptr inbounds nuw i8, ptr %12, i64 32
  %14 = load ptr, ptr %13, align 8, !tbaa !77
  %15 = getelementptr inbounds nuw i8, ptr %0, i64 24
  %16 = call noundef i32 @_ZN3zmq15tcp_open_socketEPKcRKNS_9options_tEbbPNS_13tcp_address_tE(ptr noundef %14, ptr noundef nonnull align 8 dereferenceable(1336) %15, i1 noundef zeroext false, i1 noundef zeroext true, ptr noundef nonnull %2)
  store i32 %16, ptr %3, align 8, !tbaa !80
  %17 = icmp eq i32 %16, -1
  br i1 %17, label %29, label %18

18:                                               ; preds = %10
  call void @_ZN3zmq14unblock_socketEi(i32 noundef %16)
  %19 = load i32, ptr %3, align 8, !tbaa !80
  %20 = call noundef ptr @_ZNK3zmq13tcp_address_t4addrEv(ptr noundef nonnull align 4 dereferenceable(57) %2)
  %21 = call noundef i32 @_ZNK3zmq13tcp_address_t7addrlenEv(ptr noundef nonnull align 4 dereferenceable(57) %2)
  %22 = call i32 @connect(i32 noundef %19, ptr noundef %20, i32 noundef %21)
  %23 = icmp eq i32 %22, 0
  br i1 %23, label %29, label %24

24:                                               ; preds = %18
  %25 = tail call ptr @__errno_location() #20
  %26 = load i32, ptr %25, align 4, !tbaa !79
  %27 = icmp eq i32 %26, 4
  br i1 %27, label %28, label %29

28:                                               ; preds = %24
  store i32 115, ptr %25, align 4, !tbaa !79
  br label %29

29:                                               ; preds = %18, %28, %24, %10
  %.0 = phi i32 [ -1, %10 ], [ 0, %18 ], [ -1, %28 ], [ -1, %24 ]
  call void @llvm.lifetime.end.p0(i64 60, ptr nonnull %2) #17
  ret i32 %.0
}